target datalayout = "e-m:e-p270:32:32-p271:32:32-p272:64:64-i64:64-i128:128-f80:128-n8:16:32:64-S128"
target triple = "x86_64-pc-linux-gnu"

%struct.SDL_Renderer = type { ptr, ptr, ptr, ptr, ptr, ptr, ptr, ptr, ptr, ptr, ptr, ptr, ptr, ptr, ptr, ptr, ptr, ptr, ptr, ptr, ptr, ptr, ptr, ptr, ptr, ptr, ptr, ptr, ptr, ptr, i32, i8, ptr, i8, i8, i8, i64, i64, ptr, %struct.SDL_RenderViewState, %struct.SDL_FPoint, i32, i32, ptr, ptr, ptr, i32, float, float, float, float, %struct.SDL_FColor, i32, i32, i32, ptr, ptr, ptr, ptr, i32, %struct.SDL_FColor, float, %struct.SDL_Rect, %struct.SDL_Rect, i8, i8, i8, i8, ptr, i64, i64, i8, ptr, ptr, i32, ptr, i8, ptr, ptr }
%struct.SDL_RenderViewState = type { i32, i32, %struct.SDL_Rect, %struct.SDL_Rect, %struct.SDL_Rect, %struct.SDL_Rect, i8, %struct.SDL_FPoint, i32, i32, i32, %struct.SDL_FRect, %struct.SDL_FRect, %struct.SDL_FPoint, %struct.SDL_FPoint, %struct.SDL_FPoint }
%struct.SDL_FRect = type { float, float, float, float }
%struct.SDL_FPoint = type { float, float }
%struct.SDL_FColor = type { float, float, float, float }
%struct.SDL_Rect = type { i32, i32, i32, i32 }
%struct.VULKAN_Buffer = type { ptr, ptr, i64, ptr }
%struct.SDL_Texture = type { i32, i32, i32, i32, i32, float, float, i32, i32, i32, %struct.SDL_FColor, %struct.SDL_RenderViewState, ptr, ptr, ptr, ptr, i32, %struct.SDL_Rect, ptr, i32, i32, ptr, ptr, ptr }
%struct.VULKAN_TextureData = type { %struct.VULKAN_Image, [2 x ptr], ptr, %struct.VULKAN_Buffer, %struct.SDL_Rect, i32, i32, i32, ptr, ptr, ptr, ptr }
%struct.VULKAN_Image = type { i8, ptr, ptr, ptr, i32, i32 }

@.str.25 = private unnamed_addr constant [35 x i8] c"Texture is not currently available\00", align 1

; Function Attrs: nounwind uwtable
define internal zeroext i1 @VULKAN_UpdateTextureYUV(ptr noundef %0, ptr noundef %1, ptr noundef %2, ptr noundef %3, i32 noundef %4, ptr noundef %5, i32 noundef %6, ptr noundef %7, i32 noundef %8) #0 {
  %10 = alloca i1, align 1
  %11 = alloca ptr, align 8
  %12 = alloca ptr, align 8
  %13 = alloca ptr, align 8
  %14 = alloca ptr, align 8
  %15 = alloca i32, align 4
  %16 = alloca ptr, align 8
  %17 = alloca i32, align 4
  %18 = alloca ptr, align 8
  %19 = alloca i32, align 4
  %20 = alloca ptr, align 8
  %21 = alloca ptr, align 8
  %22 = alloca i32, align 4
  store ptr %0, ptr %11, align 8
  store ptr %1, ptr %12, align 8
  store ptr %2, ptr %13, align 8
  store ptr %3, ptr %14, align 8
  store i32 %4, ptr %15, align 4
  store ptr %5, ptr %16, align 8
  store i32 %6, ptr %17, align 4
  store ptr %7, ptr %18, align 8
  store i32 %8, ptr %19, align 4
  call void @llvm.lifetime.start.p0(i64 8, ptr %20) #6
  %23 = load ptr, ptr %11, align 8
  %24 = getelementptr inbounds nuw %struct.SDL_Renderer, ptr %23, i32 0, i32 77
  %25 = load ptr, ptr %24, align 8
  store ptr %25, ptr %20, align 8
  call void @llvm.lifetime.start.p0(i64 8, ptr %21) #6
  %26 = load ptr, ptr %12, align 8
  %27 = getelementptr inbounds nuw %struct.SDL_Texture, ptr %26, i32 0, i32 21
  %28 = load ptr, ptr %27, align 8
  store ptr %28, ptr %21, align 8
  %29 = load ptr, ptr %21, align 8
  %30 = icmp ne ptr %29, null
  br i1 %30, label %33, label %31

31:                                               ; preds = %9
  %32 = call zeroext i1 (ptr, ...) @SDL_SetError_REAL(ptr noundef @.str.25)
  store i1 %32, ptr %10, align 1
  store i32 1, ptr %22, align 4
  br label %129

33:                                               ; preds = %9
  %34 = load ptr, ptr %20, align 8
  %35 = load ptr, ptr %21, align 8
  %36 = getelementptr inbounds nuw %struct.VULKAN_TextureData, ptr %35, i32 0, i32 0
  %37 = getelementptr inbounds nuw %struct.VULKAN_Image, ptr %36, i32 0, i32 1
  %38 = load ptr, ptr %37, align 8
  %39 = load ptr, ptr %21, align 8
  %40 = getelementptr inbounds nuw %struct.VULKAN_TextureData, ptr %39, i32 0, i32 0
  %41 = getelementptr inbounds nuw %struct.VULKAN_Image, ptr %40, i32 0, i32 5
  %42 = load i32, ptr %41, align 4
  %43 = load ptr, ptr %13, align 8
  %44 = getelementptr inbounds nuw %struct.SDL_Rect, ptr %43, i32 0, i32 0
  %45 = load i32, ptr %44, align 4
  %46 = load ptr, ptr %13, align 8
  %47 = getelementptr inbounds nuw %struct.SDL_Rect, ptr %46, i32 0, i32 1
  %48 = load i32, ptr %47, align 4
  %49 = load ptr, ptr %13, align 8
  %50 = getelementptr inbounds nuw %struct.SDL_Rect, ptr %49, i32 0, i32 2
  %51 = load i32, ptr %50, align 4
  %52 = load ptr, ptr %13, align 8
  %53 = getelementptr inbounds nuw %struct.SDL_Rect, ptr %52, i32 0, i32 3
  %54 = load i32, ptr %53, align 4
  %55 = load ptr, ptr %14, align 8
  %56 = load i32, ptr %15, align 4
  %57 = load ptr, ptr %21, align 8
  %58 = getelementptr inbounds nuw %struct.VULKAN_TextureData, ptr %57, i32 0, i32 0
  %59 = getelementptr inbounds nuw %struct.VULKAN_Image, ptr %58, i32 0, i32 4
  %60 = call zeroext i1 @VULKAN_UpdateTextureInternal(ptr noundef %34, ptr noundef %38, i32 noundef %42, i32 noundef 0, i32 noundef %45, i32 noundef %48, i32 noundef %51, i32 noundef %54, ptr noundef %55, i32 noundef %56, ptr noundef %59)
  br i1 %60, label %62, label %61

61:                                               ; preds = %33
  store i1 false, ptr %10, align 1
  store i32 1, ptr %22, align 4
  br label %129

62:                                               ; preds = %33
  %63 = load ptr, ptr %20, align 8
  %64 = load ptr, ptr %21, align 8
  %65 = getelementptr inbounds nuw %struct.VULKAN_TextureData, ptr %64, i32 0, i32 0
  %66 = getelementptr inbounds nuw %struct.VULKAN_Image, ptr %65, i32 0, i32 1
  %67 = load ptr, ptr %66, align 8
  %68 = load ptr, ptr %21, align 8
  %69 = getelementptr inbounds nuw %struct.VULKAN_TextureData, ptr %68, i32 0, i32 0
  %70 = getelementptr inbounds nuw %struct.VULKAN_Image, ptr %69, i32 0, i32 5
  %71 = load i32, ptr %70, align 4
  %72 = load ptr, ptr %13, align 8
  %73 = getelementptr inbounds nuw %struct.SDL_Rect, ptr %72, i32 0, i32 0
  %74 = load i32, ptr %73, align 4
  %75 = sdiv i32 %74, 2
  %76 = load ptr, ptr %13, align 8
  %77 = getelementptr inbounds nuw %struct.SDL_Rect, ptr %76, i32 0, i32 1
  %78 = load i32, ptr %77, align 4
  %79 = sdiv i32 %78, 2
  %80 = load ptr, ptr %13, align 8
  %81 = getelementptr inbounds nuw %struct.SDL_Rect, ptr %80, i32 0, i32 2
  %82 = load i32, ptr %81, align 4
  %83 = sdiv i32 %82, 2
  %84 = load ptr, ptr %13, align 8
  %85 = getelementptr inbounds nuw %struct.SDL_Rect, ptr %84, i32 0, i32 3
  %86 = load i32, ptr %85, align 4
  %87 = sdiv i32 %86, 2
  %88 = load ptr, ptr %16, align 8
  %89 = load i32, ptr %17, align 4
  %90 = load ptr, ptr %21, align 8
  %91 = getelementptr inbounds nuw %struct.VULKAN_TextureData, ptr %90, i32 0, i32 0
  %92 = getelementptr inbounds nuw %struct.VULKAN_Image, ptr %91, i32 0, i32 4
  %93 = call zeroext i1 @VULKAN_UpdateTextureInternal(ptr noundef %63, ptr noundef %67, i32 noundef %71, i32 noundef 1, i32 noundef %75, i32 noundef %79, i32 noundef %83, i32 noundef %87, ptr noundef %88, i32 noundef %89, ptr noundef %92)
  br i1 %93, label %95, label %94

94:                                               ; preds = %62
  store i1 false, ptr %10, align 1
  store i32 1, ptr %22, align 4
  br label %129

95:                                               ; preds = %62
  %96 = load ptr, ptr %20, align 8
  %97 = load ptr, ptr %21, align 8
  %98 = getelementptr inbounds nuw %struct.VULKAN_TextureData, ptr %97, i32 0, i32 0
  %99 = getelementptr inbounds nuw %struct.VULKAN_Image, ptr %98, i32 0, i32 1
  %100 = load ptr, ptr %99, align 8
  %101 = load ptr, ptr %21, align 8
  %102 = getelementptr inbounds nuw %struct.VULKAN_TextureData, ptr %101, i32 0, i32 0
  %103 = getelementptr inbounds nuw %struct.VULKAN_Image, ptr %102, i32 0, i32 5
  %104 = load i32, ptr %103, align 4
  %105 = load ptr, ptr %13, align 8
  %106 = getelementptr inbounds nuw %struct.SDL_Rect, ptr %105, i32 0, i32 0
  %107 = load i32, ptr %106, align 4
  %108 = sdiv i32 %107, 2
  %109 = load ptr, ptr %13, align 8
  %110 = getelementptr inbounds nuw %struct.SDL_Rect, ptr %109, i32 0, i32 1
  %111 = load i32, ptr %110, align 4
  %112 = sdiv i32 %111, 2
  %113 = load ptr, ptr %13, align 8
  %114 = getelementptr inbounds nuw %struct.SDL_Rect, ptr %113, i32 0, i32 2
  %115 = load i32, ptr %114, align 4
  %116 = sdiv i32 %115, 2
  %117 = load ptr, ptr %13, align 8
  %118 = getelementptr inbounds nuw %struct.SDL_Rect, ptr %117, i32 0, i32 3
  %119 = load i32, ptr %118, align 4
  %120 = sdiv i32 %119, 2
  %121 = load ptr, ptr %18, align 8
  %122 = load i32, ptr %19, align 4
  %123 = load ptr, ptr %21, align 8
  %124 = getelementptr inbounds nuw %struct.VULKAN_TextureData, ptr %123, i32 0, i32 0
  %125 = getelementptr inbounds nuw %struct.VULKAN_Image, ptr %124, i32 0, i32 4
  %126 = call zeroext i1 @VULKAN_UpdateTextureInternal(ptr noundef %96, ptr noundef %100, i32 noundef %104, i32 noundef 2, i32 noundef %108, i32 noundef %112, i32 noundef %116, i32 noundef %120, ptr noundef %121, i32 noundef %122, ptr noundef %125)
  br i1 %126, label %128, label %127

127:                                              ; preds = %95
  store i1 false, ptr %10, align 1
  store i32 1, ptr %22, align 4
  br label %129

128:                                              ; preds = %95
  store i1 true, ptr %10, align 1
  store i32 1, ptr %22, align 4
  br label %129

129:                                              ; preds = %128, %127, %94, %61, %31
  call void @llvm.lifetime.end.p0(i64 8, ptr %21) #6
  call void @llvm.lifetime.end.p0(i64 8, ptr %20) #6
  %130 = load i1, ptr %10, align 1
  ret i1 %130
}