; Function Attrs: nounwind uwtable
define internal zeroext i1 @VULKAN_UpdateTextureYUV(ptr noundef readonly captures(none) %0, ptr noundef readonly captures(none) %1, ptr noundef readonly captures(none) %2, ptr noundef readonly captures(none) %3, i32 noundef %4, ptr noundef readonly captures(none) %5, i32 noundef %6, ptr noundef readonly captures(none) %7, i32 noundef %8) #0 {
  %10 = getelementptr inbounds nuw i8, ptr %0, i64 696
  %11 = load ptr, ptr %10, align 8
  %12 = getelementptr inbounds nuw i8, ptr %1, i64 280
  %13 = load ptr, ptr %12, align 8
  %.not = icmp eq ptr %13, null
  br i1 %.not, label %14, label %16

14:                                               ; preds = %9
  %15 = tail call zeroext i1 (ptr, ...) @SDL_SetError_REAL(ptr noundef nonnull @.str.25) #8
  br label %54

16:                                               ; preds = %9
  %17 = getelementptr inbounds nuw i8, ptr %13, i64 8
  %18 = load ptr, ptr %17, align 8
  %19 = getelementptr inbounds nuw i8, ptr %13, i64 36
  %20 = load i32, ptr %19, align 4
  %21 = load i32, ptr %2, align 4
  %22 = getelementptr inbounds nuw i8, ptr %2, i64 4
  %23 = load i32, ptr %22, align 4
  %24 = getelementptr inbounds nuw i8, ptr %2, i64 8
  %25 = load i32, ptr %24, align 4
  %26 = getelementptr inbounds nuw i8, ptr %2, i64 12
  %27 = load i32, ptr %26, align 4
  %28 = getelementptr inbounds nuw i8, ptr %13, i64 32
  %29 = tail call fastcc zeroext i1 @VULKAN_UpdateTextureInternal(ptr noundef %11, ptr noundef %18, i32 noundef %20, i32 noundef 0, i32 noundef %21, i32 noundef %23, i32 noundef %25, i32 noundef %27, ptr noundef %3, i32 noundef %4, ptr noundef %28)
  br i1 %29, label %30, label %54

30:                                               ; preds = %16
  %31 = load ptr, ptr %17, align 8
  %32 = load i32, ptr %19, align 4
  %33 = load i32, ptr %2, align 4
  %34 = sdiv i32 %33, 2
  %35 = load i32, ptr %22, align 4
  %36 = sdiv i32 %35, 2
  %37 = load i32, ptr %24, align 4
  %38 = sdiv i32 %37, 2
  %39 = load i32, ptr %26, align 4
  %40 = sdiv i32 %39, 2
  %41 = tail call fastcc zeroext i1 @VULKAN_UpdateTextureInternal(ptr noundef %11, ptr noundef %31, i32 noundef %32, i32 noundef 1, i32 noundef %34, i32 noundef %36, i32 noundef %38, i32 noundef %40, ptr noundef %5, i32 noundef %6, ptr noundef %28)
  br i1 %41, label %42, label %54

42:                                               ; preds = %30
  %43 = load ptr, ptr %17, align 8
  %44 = load i32, ptr %19, align 4
  %45 = load i32, ptr %2, align 4
  %46 = sdiv i32 %45, 2
  %47 = load i32, ptr %22, align 4
  %48 = sdiv i32 %47, 2
  %49 = load i32, ptr %24, align 4
  %50 = sdiv i32 %49, 2
  %51 = load i32, ptr %26, align 4
  %52 = sdiv i32 %51, 2
  %53 = tail call fastcc zeroext i1 @VULKAN_UpdateTextureInternal(ptr noundef %11, ptr noundef %43, i32 noundef %44, i32 noundef 2, i32 noundef %46, i32 noundef %48, i32 noundef %50, i32 noundef %52, ptr noundef %7, i32 noundef %8, ptr noundef %28)
  br label %54

54:                                               ; preds = %42, %30, %16, %14
  %.0 = phi i1 [ %15, %14 ], [ false, %16 ], [ false, %30 ], [ %53, %42 ]
  ret i1 %.0
}